; Function Attrs: mustprogress uwtable
define hidden void @_ZNK23linear_equation_manager7displayERSoRK15linear_equation(ptr nocapture noundef nonnull readonly align 8 dereferenceable(64) %this, ptr noundef nonnull align 8 dereferenceable(8) %out, ptr nocapture noundef nonnull readonly align 8 dereferenceable(32) %eq) local_unnamed_addr #4 align 2 personality ptr @__gxx_personality_v0 {
entry:
  %ref.tmp = alloca %"class.std::__cxx11::basic_string", align 8
  %0 = load i32, ptr %eq, align 8
  %cmp9.not = icmp eq i32 %0, 0
  br i1 %cmp9.not, label %for.end, label %for.body.lr.ph

for.body.lr.ph:                                   ; preds = %entry
  %m = getelementptr inbounds i8, ptr %this, i64 8
  %m_as = getelementptr inbounds i8, ptr %eq, i64 8
  %m_xs = getelementptr inbounds i8, ptr %eq, i64 24
  %wide.trip.count = zext i32 %0 to i64
  br label %for.body

for.body:                                         ; preds = %for.body.lr.ph, %invoke.cont8
  %indvars.iv = phi i64 [ 0, %for.body.lr.ph ], [ %indvars.iv.next, %invoke.cont8 ]
  %cmp2.not = icmp eq i64 %indvars.iv, 0
  br i1 %cmp2.not, label %if.end, label %if.then

if.then:                                          ; preds = %for.body
  %call = call noundef nonnull align 8 dereferenceable(8) ptr @_ZStlsISt11char_traitsIcEERSt13basic_ostreamIcT_ES5_PKc(ptr noundef nonnull align 8 dereferenceable(8) %out, ptr noundef nonnull @.str)
  br label %if.end

if.end:                                           ; preds = %if.then, %for.body
  %1 = load ptr, ptr %m, align 8
  %2 = load ptr, ptr %m_as, align 8
  %arrayidx = getelementptr inbounds %class.mpz, ptr %2, i64 %indvars.iv
  call void @_ZNK11mpz_managerILb0EE9to_stringB5cxx11ERK3mpz(ptr nonnull sret(%"class.std::__cxx11::basic_string") align 8 %ref.tmp, ptr noundef nonnull align 8 dereferenceable(600) %1, ptr noundef nonnull align 8 dereferenceable(16) %arrayidx)
  %call3 = invoke noundef nonnull align 8 dereferenceable(8) ptr @_ZStlsIcSt11char_traitsIcESaIcEERSt13basic_ostreamIT_T0_ES7_RKNSt7__cxx1112basic_stringIS4_S5_T1_EE(ptr noundef nonnull align 8 dereferenceable(8) %out, ptr noundef nonnull align 8 dereferenceable(32) %ref.tmp)
          to label %invoke.cont unwind label %lpad

invoke.cont:                                      ; preds = %if.end
  %call5 = invoke noundef nonnull align 8 dereferenceable(8) ptr @_ZStlsISt11char_traitsIcEERSt13basic_ostreamIcT_ES5_PKc(ptr noundef nonnull align 8 dereferenceable(8) %call3, ptr noundef nonnull @.str.1)
          to label %invoke.cont4 unwind label %lpad

invoke.cont4:                                     ; preds = %invoke.cont
  %3 = load ptr, ptr %m_xs, align 8
  %arrayidx7 = getelementptr inbounds i32, ptr %3, i64 %indvars.iv
  %4 = load i32, ptr %arrayidx7, align 4
  %call9 = invoke noundef nonnull align 8 dereferenceable(8) ptr @_ZNSolsEj(ptr noundef nonnull align 8 dereferenceable(8) %call5, i32 noundef %4)
          to label %invoke.cont8 unwind label %lpad

invoke.cont8:                                     ; preds = %invoke.cont4
  call void @_ZNSt7__cxx1112basic_stringIcSt11char_traitsIcESaIcEED1Ev(ptr noundef nonnull align 8 dereferenceable(32) %ref.tmp) #15
  %indvars.iv.next = add nuw nsw i64 %indvars.iv, 1
  %exitcond.not = icmp eq i64 %indvars.iv.next, %wide.trip.count
  br i1 %exitcond.not, label %for.end, label %for.body, !llvm.loop !6

lpad:                                             ; preds = %invoke.cont4, %invoke.cont, %if.end
  %5 = landingpad { ptr, i32 }
          cleanup
  call void @_ZNSt7__cxx1112basic_stringIcSt11char_traitsIcESaIcEED1Ev(ptr noundef nonnull align 8 dereferenceable(32) %ref.tmp) #15
  resume { ptr, i32 } %5

for.end:                                          ; preds = %invoke.cont8, %entry
  %call10 = call noundef nonnull align 8 dereferenceable(8) ptr @_ZStlsISt11char_traitsIcEERSt13basic_ostreamIcT_ES5_PKc(ptr noundef nonnull align 8 dereferenceable(8) %out, ptr noundef nonnull @.str.2)
  ret void
}